; ModuleID = '62/1937.cpp'
source_filename = "62/1937.cpp"
target datalayout = "e-m:e-p270:32:32-p271:32:32-p272:64:64-i64:64-f80:128-n8:16:32:64-S128"
target triple = "x86_64-pc-linux-gnu"

%"class.std::ios_base::Init" = type { i8 }
%"class.std::basic_ostream" = type { i32 (...)**, %"class.std::basic_ios" }
%"class.std::basic_ios" = type { %"class.std::ios_base", %"class.std::basic_ostream"*, i8, i8, %"class.std::basic_streambuf"*, %"class.std::ctype"*, %"class.std::num_put"*, %"class.std::num_get"* }
%"class.std::ios_base" = type { i32 (...)**, i64, i64, i32, i32, i32, %"struct.std::ios_base::_Callback_list"*, %"struct.std::ios_base::_Words", [8 x %"struct.std::ios_base::_Words"], i32, %"struct.std::ios_base::_Words"*, %"class.std::locale" }
%"struct.std::ios_base::_Callback_list" = type { %"struct.std::ios_base::_Callback_list"*, void (i32, %"class.std::ios_base"*, i32)*, i32, i32 }
%"struct.std::ios_base::_Words" = type { i8*, i64 }
%"class.std::locale" = type { %"class.std::locale::_Impl"* }
%"class.std::locale::_Impl" = type { i32, %"class.std::locale::facet"**, i64, %"class.std::locale::facet"**, i8** }
%"class.std::locale::facet" = type <{ i32 (...)**, i32, [4 x i8] }>
%"class.std::basic_streambuf" = type { i32 (...)**, i8*, i8*, i8*, i8*, i8*, i8*, %"class.std::locale" }
%"class.std::ctype" = type <{ %"class.std::locale::facet.base", [4 x i8], %struct.__locale_struct*, i8, [7 x i8], i32*, i32*, i16*, i8, [256 x i8], [256 x i8], i8, [6 x i8] }>
%"class.std::locale::facet.base" = type <{ i32 (...)**, i32 }>
%struct.__locale_struct = type { [13 x %struct.__locale_data*], i16*, i32*, i32*, [13 x i8*] }
%struct.__locale_data = type opaque
%"class.std::num_put" = type { %"class.std::locale::facet.base", [4 x i8] }
%"class.std::num_get" = type { %"class.std::locale::facet.base", [4 x i8] }
%"class.std::basic_istream" = type { i32 (...)**, i64, %"class.std::basic_ios" }

@_ZStL8__ioinit = internal global %"class.std::ios_base::Init" zeroinitializer, align 1
@__dso_handle = external hidden global i8
@_ZSt4cout = external dso_local global %"class.std::basic_ostream", align 8
@_ZSt3cin = external dso_local global %"class.std::basic_istream", align 8
@llvm.global_ctors = appending global [1 x { i32, void ()*, i8* }] [{ i32, void ()*, i8* } { i32 65535, void ()* @_GLOBAL__sub_I_1937.cpp, i8* null }]

; Function Attrs: noinline uwtable
define internal void @__cxx_global_var_init() #0 section ".text.startup" {
  call void @_ZNSt8ios_base4InitC1Ev(%"class.std::ios_base::Init"* @_ZStL8__ioinit)
  %1 = call i32 @__cxa_atexit(void (i8*)* bitcast (void (%"class.std::ios_base::Init"*)* @_ZNSt8ios_base4InitD1Ev to void (i8*)*), i8* getelementptr inbounds (%"class.std::ios_base::Init", %"class.std::ios_base::Init"* @_ZStL8__ioinit, i32 0, i32 0), i8* @__dso_handle) #3
  ret void
}

declare dso_local void @_ZNSt8ios_base4InitC1Ev(%"class.std::ios_base::Init"*) unnamed_addr #1

; Function Attrs: nounwind
declare dso_local void @_ZNSt8ios_base4InitD1Ev(%"class.std::ios_base::Init"*) unnamed_addr #2

; Function Attrs: nounwind
declare dso_local i32 @__cxa_atexit(void (i8*)*, i8*, i8*) #3

; Function Attrs: noinline uwtable
define dso_local void @_Z3delPc(i8* %0) #0 {
  %2 = alloca i8*, align 8
  %3 = alloca i8*, align 8
  %4 = alloca i32, align 4
  %5 = alloca i8*, align 8
  %6 = alloca i8, align 1
  store i8* %0, i8** %2, align 8
  %7 = load i8*, i8** %2, align 8
  store i8* %7, i8** %3, align 8
  br label %8

8:                                                ; preds = %57, %1
  %9 = load i8*, i8** %3, align 8
  %10 = load i8, i8* %9, align 1
  %11 = sext i8 %10 to i32
  %12 = icmp ne i32 %11, 0
  br i1 %12, label %13, label %60

13:                                               ; preds = %8
  %14 = load i8*, i8** %3, align 8
  %15 = load i8, i8* %14, align 1
  %16 = sext i8 %15 to i32
  %17 = icmp eq i32 %16, 32
  br i1 %17, label %18, label %56

18:                                               ; preds = %13
  %19 = load i8*, i8** %3, align 8
  %20 = getelementptr inbounds i8, i8* %19, i64 1
  %21 = load i8, i8* %20, align 1
  %22 = sext i8 %21 to i32
  %23 = icmp eq i32 %22, 32
  br i1 %23, label %24, label %56

24:                                               ; preds = %18
  store i32 0, i32* %4, align 4
  %25 = load i8*, i8** %3, align 8
  %26 = getelementptr inbounds i8, i8* %25, i64 1
  store i8* %26, i8** %5, align 8
  br label %27

27:                                               ; preds = %45, %24
  %28 = load i8*, i8** %5, align 8
  %29 = getelementptr inbounds i8, i8* %28, i64 1
  %30 = load i8, i8* %29, align 1
  %31 = sext i8 %30 to i32
  %32 = icmp ne i32 %31, 0
  br i1 %32, label %33, label %48

33:                                               ; preds = %27
  %34 = load i8*, i8** %5, align 8
  %35 = load i8, i8* %34, align 1
  store i8 %35, i8* %6, align 1
  %36 = load i8*, i8** %5, align 8
  %37 = getelementptr inbounds i8, i8* %36, i64 1
  %38 = load i8, i8* %37, align 1
  %39 = load i8*, i8** %5, align 8
  store i8 %38, i8* %39, align 1
  %40 = load i8, i8* %6, align 1
  %41 = load i8*, i8** %5, align 8
  %42 = getelementptr inbounds i8, i8* %41, i64 1
  store i8 %40, i8* %42, align 1
  %43 = load i32, i32* %4, align 4
  %44 = add nsw i32 %43, 1
  store i32 %44, i32* %4, align 4
  br label %45

45:                                               ; preds = %33
  %46 = load i8*, i8** %5, align 8
  %47 = getelementptr inbounds i8, i8* %46, i32 1
  store i8* %47, i8** %5, align 8
  br label %27

48:                                               ; preds = %27
  %49 = load i8*, i8** %3, align 8
  %50 = getelementptr inbounds i8, i8* %49, i64 1
  %51 = load i32, i32* %4, align 4
  %52 = sext i32 %51 to i64
  %53 = getelementptr inbounds i8, i8* %50, i64 %52
  store i8 0, i8* %53, align 1
  %54 = load i8*, i8** %3, align 8
  %55 = getelementptr inbounds i8, i8* %54, i64 -1
  store i8* %55, i8** %3, align 8
  br label %56

56:                                               ; preds = %48, %18, %13
  br label %57

57:                                               ; preds = %56
  %58 = load i8*, i8** %3, align 8
  %59 = getelementptr inbounds i8, i8* %58, i32 1
  store i8* %59, i8** %3, align 8
  br label %8

60:                                               ; preds = %8
  %61 = load i8*, i8** %2, align 8
  %62 = call dereferenceable(272) %"class.std::basic_ostream"* @_ZStlsISt11char_traitsIcEERSt13basic_ostreamIcT_ES5_PKc(%"class.std::basic_ostream"* dereferenceable(272) @_ZSt4cout, i8* %61)
  ret void
}

declare dso_local dereferenceable(272) %"class.std::basic_ostream"* @_ZStlsISt11char_traitsIcEERSt13basic_ostreamIcT_ES5_PKc(%"class.std::basic_ostream"* dereferenceable(272), i8*) #1

; Function Attrs: noinline norecurse uwtable
define dso_local i32 @main() #4 {
  %1 = alloca i32, align 4
  %2 = alloca [100 x i8], align 16
  store i32 0, i32* %1, align 4
  %3 = getelementptr inbounds [100 x i8], [100 x i8]* %2, i64 0, i64 0
  %4 = call dereferenceable(280) %"class.std::basic_istream"* @_ZNSi7getlineEPcl(%"class.std::basic_istream"* @_ZSt3cin, i8* %3, i64 100)
  %5 = getelementptr inbounds [100 x i8], [100 x i8]* %2, i64 0, i64 0
  call void @_Z3delPc(i8* %5)
  ret i32 0
}

declare dso_local dereferenceable(280) %"class.std::basic_istream"* @_ZNSi7getlineEPcl(%"class.std::basic_istream"*, i8*, i64) #1

; Function Attrs: noinline uwtable
define internal void @_GLOBAL__sub_I_1937.cpp() #0 section ".text.startup" {
  call void @__cxx_global_var_init()
  ret void
}


!llvm.module.flags = !{!0}
!llvm.ident = !{!1}

!0 = !{i32 1, !"wchar_size", i32 4}
!1 = !{!"clang version 10.0.0-4ubuntu1 "}
