; ModuleID = 'source-C-CXX/61/1937.cpp'
source_filename = "source-C-CXX/61/1937.cpp"
target datalayout = "e-m:e-p270:32:32-p271:32:32-p272:64:64-i64:64-f80:128-n8:16:32:64-S128"
target triple = "x86_64-pc-linux-gnu"

%"class.std::ios_base::Init" = type { i8 }
%"class.std::basic_ostream" = type { i32 (...)**, %"class.std::basic_ios" }
%"class.std::basic_ios" = type { %"class.std::ios_base", %"class.std::basic_ostream"*, i8, i8, %"class.std::basic_streambuf"*, %"class.std::ctype"*, %"class.std::num_put"*, %"class.std::num_get"* }
%"class.std::ios_base" = type { i32 (...)**, i64, i64, i32, i32, i32, %"struct.std::ios_base::_Callback_list"*, %"struct.std::ios_base::_Words", [8 x %"struct.std::ios_base::_Words"], i32, %"struct.std::ios_base::_Words"*, %"class.std::locale" }
%"struct.std::ios_base::_Callback_list" = type { %"struct.std::ios_base::_Callback_list"*, void (i32, %"class.std::ios_base"*, i32)*, i32, i32 }
%"struct.std::ios_base::_Words" = type { i8*, i64 }
%"class.std::locale" = type { %"class.std::locale::_Impl"* }
%"class.std::locale::_Impl" = type { i32, %"class.std::locale::facet"**, i64, %"class.std::locale::facet"**, i8** }
%"class.std::locale::facet" = type <{ i32 (...)**, i32, [4 x i8] }>
%"class.std::basic_streambuf" = type { i32 (...)**, i8*, i8*, i8*, i8*, i8*, i8*, %"class.std::locale" }
%"class.std::ctype" = type <{ %"class.std::locale::facet.base", [4 x i8], %struct.__locale_struct*, i8, [7 x i8], i32*, i32*, i16*, i8, [256 x i8], [256 x i8], i8, [6 x i8] }>
%"class.std::locale::facet.base" = type <{ i32 (...)**, i32 }>
%struct.__locale_struct = type { [13 x %struct.__locale_data*], i16*, i32*, i32*, [13 x i8*] }
%struct.__locale_data = type opaque
%"class.std::num_put" = type { %"class.std::locale::facet.base", [4 x i8] }
%"class.std::num_get" = type { %"class.std::locale::facet.base", [4 x i8] }
%"class.std::basic_istream" = type { i32 (...)**, i64, %"class.std::basic_ios" }

@_ZStL8__ioinit = internal global %"class.std::ios_base::Init" zeroinitializer, align 1
@__dso_handle = external hidden global i8
@_ZSt4cout = external global %"class.std::basic_ostream", align 8
@_ZSt3cin = external global %"class.std::basic_istream", align 8
@llvm.global_ctors = appending global [1 x { i32, void ()*, i8* }] [{ i32, void ()*, i8* } { i32 65535, void ()* @_GLOBAL__sub_I_1937.cpp, i8* null }]

declare void @_ZNSt8ios_base4InitC1Ev(%"class.std::ios_base::Init"* nonnull align 1 dereferenceable(1)) unnamed_addr #0

; Function Attrs: nounwind
declare void @_ZNSt8ios_base4InitD1Ev(%"class.std::ios_base::Init"* nonnull align 1 dereferenceable(1)) unnamed_addr #1

; Function Attrs: nofree nounwind
declare i32 @__cxa_atexit(void (i8*)*, i8*, i8*) local_unnamed_addr #2

; Function Attrs: mustprogress sspstrong uwtable
define dso_local void @_Z3delPc(i8* %0) local_unnamed_addr #3 {
  br label %2

2:                                                ; preds = %27, %1
  %3 = phi i8* [ %0, %1 ], [ %29, %27 ]
  %4 = load i8, i8* %3, align 1, !tbaa !5
  switch i8 %4, label %27 [
    i8 0, label %30
    i8 32, label %5
  ]

5:                                                ; preds = %2
  %6 = getelementptr inbounds i8, i8* %3, i64 1
  %7 = load i8, i8* %6, align 1, !tbaa !5
  %8 = icmp eq i8 %7, 32
  br i1 %8, label %9, label %27

9:                                                ; preds = %5
  %10 = getelementptr inbounds i8, i8* %3, i64 2
  %11 = load i8, i8* %10, align 1, !tbaa !5
  %12 = icmp eq i8 %11, 0
  br i1 %12, label %22, label %13

13:                                               ; preds = %9, %13
  %14 = phi i8 [ %20, %13 ], [ %11, %9 ]
  %15 = phi i8* [ %19, %13 ], [ %10, %9 ]
  %16 = phi i8* [ %15, %13 ], [ %6, %9 ]
  %17 = phi i32 [ %18, %13 ], [ 0, %9 ]
  store i8 %14, i8* %16, align 1, !tbaa !5
  store i8 32, i8* %15, align 1, !tbaa !5
  %18 = add nuw nsw i32 %17, 1
  %19 = getelementptr inbounds i8, i8* %15, i64 1
  %20 = load i8, i8* %19, align 1, !tbaa !5
  %21 = icmp eq i8 %20, 0
  br i1 %21, label %22, label %13, !llvm.loop !8

22:                                               ; preds = %13, %9
  %23 = phi i32 [ 0, %9 ], [ %18, %13 ]
  %24 = zext i32 %23 to i64
  %25 = getelementptr inbounds i8, i8* %6, i64 %24
  store i8 0, i8* %25, align 1, !tbaa !5
  %26 = getelementptr inbounds i8, i8* %3, i64 -1
  br label %27

27:                                               ; preds = %2, %5, %22
  %28 = phi i8* [ %26, %22 ], [ %3, %5 ], [ %3, %2 ]
  %29 = getelementptr inbounds i8, i8* %28, i64 1
  br label %2, !llvm.loop !10

30:                                               ; preds = %2
  %31 = icmp eq i8* %0, null
  br i1 %31, label %32, label %43

32:                                               ; preds = %30
  %33 = load i8*, i8** bitcast (%"class.std::basic_ostream"* @_ZSt4cout to i8**), align 8, !tbaa !11
  %34 = getelementptr i8, i8* %33, i64 -24
  %35 = bitcast i8* %34 to i64*
  %36 = load i64, i64* %35, align 8
  %37 = getelementptr inbounds i8, i8* bitcast (%"class.std::basic_ostream"* @_ZSt4cout to i8*), i64 %36
  %38 = bitcast i8* %37 to %"class.std::basic_ios"*
  %39 = getelementptr inbounds i8, i8* %37, i64 32
  %40 = bitcast i8* %39 to i32*
  %41 = load i32, i32* %40, align 8, !tbaa !13
  %42 = or i32 %41, 1
  tail call void @_ZNSt9basic_iosIcSt11char_traitsIcEE5clearESt12_Ios_Iostate(%"class.std::basic_ios"* nonnull align 8 dereferenceable(264) %38, i32 %42)
  br label %46

43:                                               ; preds = %30
  %44 = tail call i64 @strlen(i8* noundef nonnull dereferenceable(1) %0) #9
  %45 = tail call nonnull align 8 dereferenceable(8) %"class.std::basic_ostream"* @_ZSt16__ostream_insertIcSt11char_traitsIcEERSt13basic_ostreamIT_T0_ES6_PKS3_l(%"class.std::basic_ostream"* nonnull align 8 dereferenceable(8) @_ZSt4cout, i8* nonnull %0, i64 %44)
  br label %46

46:                                               ; preds = %32, %43
  ret void
}

; Function Attrs: argmemonly mustprogress nofree nosync nounwind willreturn
declare void @llvm.lifetime.start.p0i8(i64 immarg, i8* nocapture) #4

; Function Attrs: argmemonly mustprogress nofree nosync nounwind willreturn
declare void @llvm.lifetime.end.p0i8(i64 immarg, i8* nocapture) #4

; Function Attrs: mustprogress norecurse sspstrong uwtable
define dso_local i32 @main() local_unnamed_addr #5 {
  %1 = alloca [100 x i8], align 16
  %2 = getelementptr inbounds [100 x i8], [100 x i8]* %1, i64 0, i64 0
  call void @llvm.lifetime.start.p0i8(i64 100, i8* nonnull %2) #9
  %3 = load i8*, i8** bitcast (%"class.std::basic_istream"* @_ZSt3cin to i8**), align 8, !tbaa !11
  %4 = getelementptr i8, i8* %3, i64 -24
  %5 = bitcast i8* %4 to i64*
  %6 = load i64, i64* %5, align 8
  %7 = add nsw i64 %6, 240
  %8 = getelementptr inbounds i8, i8* bitcast (%"class.std::basic_istream"* @_ZSt3cin to i8*), i64 %7
  %9 = bitcast i8* %8 to %"class.std::ctype"**
  %10 = load %"class.std::ctype"*, %"class.std::ctype"** %9, align 8, !tbaa !22
  %11 = icmp eq %"class.std::ctype"* %10, null
  br i1 %11, label %12, label %13

12:                                               ; preds = %0
  tail call void @_ZSt16__throw_bad_castv() #10
  unreachable

13:                                               ; preds = %0
  %14 = getelementptr inbounds %"class.std::ctype", %"class.std::ctype"* %10, i64 0, i32 8
  %15 = load i8, i8* %14, align 8, !tbaa !25
  %16 = icmp eq i8 %15, 0
  br i1 %16, label %20, label %17

17:                                               ; preds = %13
  %18 = getelementptr inbounds %"class.std::ctype", %"class.std::ctype"* %10, i64 0, i32 9, i64 10
  %19 = load i8, i8* %18, align 1, !tbaa !5
  br label %26

20:                                               ; preds = %13
  tail call void @_ZNKSt5ctypeIcE13_M_widen_initEv(%"class.std::ctype"* nonnull align 8 dereferenceable(570) %10)
  %21 = bitcast %"class.std::ctype"* %10 to i8 (%"class.std::ctype"*, i8)***
  %22 = load i8 (%"class.std::ctype"*, i8)**, i8 (%"class.std::ctype"*, i8)*** %21, align 8, !tbaa !11
  %23 = getelementptr inbounds i8 (%"class.std::ctype"*, i8)*, i8 (%"class.std::ctype"*, i8)** %22, i64 6
  %24 = load i8 (%"class.std::ctype"*, i8)*, i8 (%"class.std::ctype"*, i8)** %23, align 8
  %25 = tail call signext i8 %24(%"class.std::ctype"* nonnull align 8 dereferenceable(570) %10, i8 signext 10)
  br label %26

26:                                               ; preds = %17, %20
  %27 = phi i8 [ %19, %17 ], [ %25, %20 ]
  %28 = call nonnull align 8 dereferenceable(16) %"class.std::basic_istream"* @_ZNSi7getlineEPclc(%"class.std::basic_istream"* nonnull align 8 dereferenceable(16) @_ZSt3cin, i8* nonnull %2, i64 100, i8 signext %27)
  br label %29

29:                                               ; preds = %54, %26
  %30 = phi i8* [ %2, %26 ], [ %56, %54 ]
  %31 = load i8, i8* %30, align 1, !tbaa !5
  switch i8 %31, label %54 [
    i8 0, label %57
    i8 32, label %32
  ]

32:                                               ; preds = %29
  %33 = getelementptr inbounds i8, i8* %30, i64 1
  %34 = load i8, i8* %33, align 1, !tbaa !5
  %35 = icmp eq i8 %34, 32
  br i1 %35, label %36, label %54

36:                                               ; preds = %32
  %37 = getelementptr inbounds i8, i8* %30, i64 2
  %38 = load i8, i8* %37, align 1, !tbaa !5
  %39 = icmp eq i8 %38, 0
  br i1 %39, label %49, label %40

40:                                               ; preds = %36, %40
  %41 = phi i8 [ %47, %40 ], [ %38, %36 ]
  %42 = phi i8* [ %46, %40 ], [ %37, %36 ]
  %43 = phi i8* [ %42, %40 ], [ %33, %36 ]
  %44 = phi i32 [ %45, %40 ], [ 0, %36 ]
  store i8 %41, i8* %43, align 1, !tbaa !5
  store i8 32, i8* %42, align 1, !tbaa !5
  %45 = add nuw nsw i32 %44, 1
  %46 = getelementptr inbounds i8, i8* %42, i64 1
  %47 = load i8, i8* %46, align 1, !tbaa !5
  %48 = icmp eq i8 %47, 0
  br i1 %48, label %49, label %40, !llvm.loop !8

49:                                               ; preds = %40, %36
  %50 = phi i32 [ 0, %36 ], [ %45, %40 ]
  %51 = zext i32 %50 to i64
  %52 = getelementptr inbounds i8, i8* %33, i64 %51
  store i8 0, i8* %52, align 1, !tbaa !5
  %53 = getelementptr inbounds i8, i8* %30, i64 -1
  br label %54

54:                                               ; preds = %49, %32, %29
  %55 = phi i8* [ %53, %49 ], [ %30, %32 ], [ %30, %29 ]
  %56 = getelementptr inbounds i8, i8* %55, i64 1
  br label %29, !llvm.loop !10

57:                                               ; preds = %29
  %58 = call i64 @strlen(i8* noundef nonnull dereferenceable(1) %2) #9
  %59 = call nonnull align 8 dereferenceable(8) %"class.std::basic_ostream"* @_ZSt16__ostream_insertIcSt11char_traitsIcEERSt13basic_ostreamIT_T0_ES6_PKS3_l(%"class.std::basic_ostream"* nonnull align 8 dereferenceable(8) @_ZSt4cout, i8* nonnull %2, i64 %58)
  call void @llvm.lifetime.end.p0i8(i64 100, i8* nonnull %2) #9
  ret i32 0
}

declare nonnull align 8 dereferenceable(8) %"class.std::basic_ostream"* @_ZSt16__ostream_insertIcSt11char_traitsIcEERSt13basic_ostreamIT_T0_ES6_PKS3_l(%"class.std::basic_ostream"* nonnull align 8 dereferenceable(8), i8*, i64) local_unnamed_addr #0

declare void @_ZNSt9basic_iosIcSt11char_traitsIcEE5clearESt12_Ios_Iostate(%"class.std::basic_ios"* nonnull align 8 dereferenceable(264), i32) local_unnamed_addr #0

; Function Attrs: argmemonly mustprogress nofree nounwind readonly willreturn
declare i64 @strlen(i8* nocapture) local_unnamed_addr #6

declare nonnull align 8 dereferenceable(16) %"class.std::basic_istream"* @_ZNSi7getlineEPclc(%"class.std::basic_istream"* nonnull align 8 dereferenceable(16), i8*, i64, i8 signext) local_unnamed_addr #0

; Function Attrs: noreturn
declare void @_ZSt16__throw_bad_castv() local_unnamed_addr #7

declare void @_ZNKSt5ctypeIcE13_M_widen_initEv(%"class.std::ctype"* nonnull align 8 dereferenceable(570)) local_unnamed_addr #0

; Function Attrs: sspstrong uwtable
define internal void @_GLOBAL__sub_I_1937.cpp() #8 section ".text.startup" {
  tail call void @_ZNSt8ios_base4InitC1Ev(%"class.std::ios_base::Init"* nonnull align 1 dereferenceable(1) @_ZStL8__ioinit)
  %1 = tail call i32 @__cxa_atexit(void (i8*)* bitcast (void (%"class.std::ios_base::Init"*)* @_ZNSt8ios_base4InitD1Ev to void (i8*)*), i8* getelementptr inbounds (%"class.std::ios_base::Init", %"class.std::ios_base::Init"* @_ZStL8__ioinit, i64 0, i32 0), i8* nonnull @__dso_handle) #9
  ret void
}


!llvm.module.flags = !{!0, !1, !2, !3}
!llvm.ident = !{!4}

!0 = !{i32 1, !"wchar_size", i32 4}
!1 = !{i32 7, !"PIC Level", i32 2}
!2 = !{i32 7, !"PIE Level", i32 2}
!3 = !{i32 7, !"uwtable", i32 1}
!4 = !{!"clang version 13.0.0"}
!5 = !{!6, !6, i64 0}
!6 = !{!"omnipotent char", !7, i64 0}
!7 = !{!"Simple C++ TBAA"}
!8 = distinct !{!8, !9}
!9 = !{!"llvm.loop.mustprogress"}
!10 = distinct !{!10, !9}
!11 = !{!12, !12, i64 0}
!12 = !{!"vtable pointer", !7, i64 0}
!13 = !{!14, !17, i64 32}
!14 = !{!"_ZTSSt8ios_base", !15, i64 8, !15, i64 16, !16, i64 24, !17, i64 28, !17, i64 32, !18, i64 40, !19, i64 48, !6, i64 64, !20, i64 192, !18, i64 200, !21, i64 208}
!15 = !{!"long", !6, i64 0}
!16 = !{!"_ZTSSt13_Ios_Fmtflags", !6, i64 0}
!17 = !{!"_ZTSSt12_Ios_Iostate", !6, i64 0}
!18 = !{!"any pointer", !6, i64 0}
!19 = !{!"_ZTSNSt8ios_base6_WordsE", !18, i64 0, !15, i64 8}
!20 = !{!"int", !6, i64 0}
!21 = !{!"_ZTSSt6locale", !18, i64 0}
!22 = !{!23, !18, i64 240}
!23 = !{!"_ZTSSt9basic_iosIcSt11char_traitsIcEE", !18, i64 216, !6, i64 224, !24, i64 225, !18, i64 232, !18, i64 240, !18, i64 248, !18, i64 256}
!24 = !{!"bool", !6, i64 0}
!25 = !{!26, !6, i64 56}
!26 = !{!"_ZTSSt5ctypeIcE", !18, i64 16, !24, i64 24, !18, i64 32, !18, i64 40, !18, i64 48, !6, i64 56, !6, i64 57, !6, i64 313, !6, i64 569}
